Certificate:
    Data:
        Version: 3 (0x2)
        Serial Number: 0 (0x0)
    Signature Algorithm: sha256WithRSAEncryption
        Issuer: CN=authority
        Validity
            Not Before: Jun 19 15:01:24 2020 GMT
            Not After : Sep 22 15:01:24 2022 GMT
        Subject: CN=domain
        Subject Public Key Info:
            Public Key Algorithm: rsaEncryption
                Public-Key: (4096 bit)
                Modulus:
                    00:e4:da:1d:ac:63:5e:43:5b:15:24:89:f4:6d:bf:
                    f0:9c:05:9b:85:5b:72:3f:48:4d:b8:f7:1e:3b:2d:
                    c7:26:36:cf:99:ba:f1:3e:38:47:c4:f8:6f:71:67:
                    b8:65:96:60:b3:44:2e:b2:ec:5d:c7:7c:c3:df:c9:
                    ae:6a:fd:79:a6:ff:2d:bf:a6:3f:94:cd:a3:49:f7:
                    83:52:bd:84:15:c7:23:c1:66:b8:5e:ff:ce:1d:98:
                    97:26:17:a0:82:c3:df:e0:0d:36:fb:19:ea:2e:e6:
                    6b:1c:3c:6c:ac:90:25:17:9d:db:3f:8f:ab:15:d3:
                    b9:f6:a2:f3:b1:6e:e4:03:5e:c2:ee:0a:a6:30:97:
                    cc:8a:7b:b8:91:de:69:02:48:1b:10:a4:ac:38:07:
                    09:09:fd:64:38:eb:1b:8b:38:a8:87:5a:2e:05:76:
                    e8:6f:2f:e6:3b:6d:8d:ac:a9:3d:93:20:d2:22:e3:
                    f2:52:ec:d8:67:88:f6:67:6e:24:b8:62:c3:ba:fd:
                    37:d9:07:e2:9e:c3:ed:1b:e5:a9:51:d6:00:69:5c:
                    5e:eb:ba:1b:aa:43:a1:3f:78:fe:73:12:e8:5d:74:
                    ed:28:32:bf:b1:6f:2e:cf:e8:59:f8:3c:58:9c:39:
                    43:0c:a7:95:06:47:65:87:ff:6b:28:57:9a:15:41:
                    3b:a8:8b:02:e8:77:04:d5:68:cb:89:2d:84:c3:9c:
                    ad:db:79:c3:23:48:75:d0:40:03:48:f5:76:ca:2b:
                    fe:ae:c3:c4:62:4e:0d:54:b7:4d:d1:22:c8:4b:15:
                    9f:3b:51:c7:d7:bf:d4:e9:8e:1c:48:20:59:f2:34:
                    52:9a:c7:ad:9f:a3:e4:ed:7e:48:5d:e6:fb:d8:82:
                    70:ac:c4:54:49:00:e0:de:45:bf:d0:39:83:fc:b9:
                    70:e8:18:85:7c:82:f5:02:6f:65:fe:be:02:6a:06:
                    bb:d8:15:ef:fb:da:0f:41:d2:f5:e4:c0:39:16:75:
                    2b:01:0c:b8:e2:e9:3b:71:c7:0b:f3:0c:2b:86:fa:
                    2e:fc:0d:90:2b:53:49:79:4f:08:2c:15:89:c2:11:
                    65:37:95:a8:b1:06:9b:9a:5f:5a:4d:47:e5:4e:00:
                    4a:06:58:c3:0b:bc:5c:b0:f5:89:f0:cb:b4:d8:3c:
                    74:d1:ef:77:1d:7b:80:fb:86:31:9e:88:86:c2:00:
                    67:2d:4b:1c:20:d6:69:3c:24:76:5c:79:f3:0d:d9:
                    d4:ec:e9:14:a6:64:24:86:6c:1e:65:c7:e3:a6:e3:
                    3d:46:b5:34:50:d3:ba:9d:f1:cc:de:0e:8c:45:df:
                    77:aa:73:4e:5f:e4:32:57:32:2d:34:3e:db:9a:3e:
                    24:6b:d1
                Exponent: 65537 (0x10001)
        X509v3 extensions:
            X509v3 Key Usage: critical
                Digital Signature, Key Encipherment
            X509v3 Basic Constraints: critical
                CA:FALSE
            X509v3 Extended Key Usage: critical
                TLS Web Server Authentication
            X509v3 Subject Alternative Name: 
                IP Address:127.0.0.1
            X509v3 Subject Key Identifier: 
                ED:3B:26:9A:B3:BA:26:75:A8:42:34:D5:6E:D9:73:D4:56:63:A1:BB
    Signature Algorithm: sha256WithRSAEncryption
         b1:7f:7c:28:2b:f1:99:17:80:0b:72:ec:17:1f:dc:88:86:11:
         79:21:7a:32:37:b1:6f:56:0d:28:8b:dd:0d:83:ee:25:09:50:
         cf:55:7c:2d:14:3e:97:a3:6a:f8:cb:52:91:fe:ea:0c:52:e5:
         1c:fe:c8:c7:dd:3f:98:3c:4d:58:d8:fd:96:70:69:33:fb:24:
         56:7b:96:e7:33:76:22:66:84:07:32:55:4c:e6:b9:33:11:df:
         d3:e7:b6:14:26:cf:ed:af:e3:c9:2e:61:ca:92:78:79:42:a7:
         e5:a3:4f:cf:77:e9:5d:96:b6:c5:90:ef:14:c7:34:99:ee:03:
         58:1b:b1:0c:a0:c9:ed:23:0b:88:f0:a8:c5:62:98:70:e4:d3:
         a3:41:46:75:7e:c3:39:96:78:73:e6:66:6e:ce:ca:db:60:30:
         48:94:84:6e:e6:5c:86:12:b8:9c:d1:f3:b6:56:ba:db:ab:2f:
         b0:ba:96:2a:9f:76:db:87:69:6d:7d:69:4c:de:6f:0c:ac:5e:
         72:c5:fe:66:14:64:a3:1b:43:3e:a8:a5:c0:44:ad:79:6c:86:
         cf:9c:81:99:a0:77:ff:ca:86:b2:f8:93:6f:d5:b0:68:8a:f6:
         52:ca:3d:48:68:97:5f:06:6b:7e:40:aa:5a:57:2e:b2:87:ec:
         00:67:67:00:de:32:ca:18:1b:55:1c:06:36:a3:1c:fd:80:5b:
         dc:5d:ca:a6:2c:b1:bc:b9:ad:86:6e:1f:f9:52:6d:8f:f8:f1:
         2e:d9:f2:f9:b4:f8:49:51:8f:2e:1f:8e:c4:d2:15:83:e2:06:
         ff:fb:d7:ed:c1:27:2f:83:46:51:a6:39:31:a3:69:ed:3d:9a:
         ac:59:5e:88:c7:df:8c:e4:4d:ae:43:a8:b4:29:6b:77:2b:1d:
         c2:40:77:83:b3:ed:78:aa:00:9d:4f:74:57:31:5a:a8:ae:92:
         7e:40:3b:e8:af:82:28:58:22:61:11:30:3d:19:66:d5:82:a2:
         ac:71:09:97:b1:f7:1d:91:c7:29:78:e1:3f:85:84:6d:0f:39:
         97:6b:66:f7:a0:5a:c9:f0:00:8c:34:20:e6:23:5a:b0:bf:f7:
         ed:15:a8:2f:e4:51:a4:08:ff:79:5a:84:f3:c4:a6:08:b3:42:
         59:e4:28:c2:54:41:e7:80:26:ee:b2:bd:2c:ce:df:44:9c:97:
         a3:09:b5:82:c2:f3:5b:76:14:7f:ff:2d:5c:dd:cc:2b:41:2f:
         02:6c:d3:11:99:36:ef:00:bf:69:46:47:cf:07:d2:76:0e:e2:
         57:6c:ff:0b:a2:ec:8a:02:02:aa:58:b8:8d:fd:8d:6b:bb:25:
         83:78:3b:7c:8e:32:68:2b
-----BEGIN CERTIFICATE-----
MIIFCDCCAvCgAwIBAgIBADANBgkqhkiG9w0BAQsFADAUMRIwEAYDVQQDDAlhdXRo
b3JpdHkwHhcNMjAwNjE5MTUwMTI0WhcNMjIwOTIyMTUwMTI0WjARMQ8wDQYDVQQD
DAZkb21haW4wggIiMA0GCSqGSIb3DQEBAQUAA4ICDwAwggIKAoICAQDk2h2sY15D
WxUkifRtv/CcBZuFW3I/SE249x47LccmNs+ZuvE+OEfE+G9xZ7hllmCzRC6y7F3H
fMPfya5q/Xmm/y2/pj+UzaNJ94NSvYQVxyPBZrhe/84dmJcmF6CCw9/gDTb7Geou
5mscPGyskCUXnds/j6sV07n2ovOxbuQDXsLuCqYwl8yKe7iR3mkCSBsQpKw4BwkJ
/WQ46xuLOKiHWi4FduhvL+Y7bY2sqT2TINIi4/JS7NhniPZnbiS4YsO6/TfZB+Ke
w+0b5alR1gBpXF7ruhuqQ6E/eP5zEuhddO0oMr+xby7P6Fn4PFicOUMMp5UGR2WH
/2soV5oVQTuoiwLodwTVaMuJLYTDnK3becMjSHXQQANI9XbKK/6uw8RiTg1Ut03R
IshLFZ87UcfXv9TpjhxIIFnyNFKax62fo+Ttfkhd5vvYgnCsxFRJAODeRb/QOYP8
uXDoGIV8gvUCb2X+vgJqBrvYFe/72g9B0vXkwDkWdSsBDLji6TtxxwvzDCuG+i78
DZArU0l5TwgsFYnCEWU3laixBpuaX1pNR+VOAEoGWMMLvFyw9Ynwy7TYPHTR73cd
e4D7hjGeiIbCAGctSxwg1mk8JHZcefMN2dTs6RSmZCSGbB5lx+Om4z1GtTRQ07qd
8czeDoxF33eqc05f5DJXMi00PtuaPiRr0QIDAQABo2gwZjAOBgNVHQ8BAf8EBAMC
BaAwDAYDVR0TAQH/BAIwADAWBgNVHSUBAf8EDDAKBggrBgEFBQcDATAPBgNVHREE
CDAGhwR/AAABMB0GA1UdDgQWBBTtOyaas7omdahCNNVu2XPUVmOhuzANBgkqhkiG
9w0BAQsFAAOCAgEAsX98KCvxmReAC3LsFx/ciIYReSF6Mjexb1YNKIvdDYPuJQlQ
z1V8LRQ+l6Nq+MtSkf7qDFLlHP7Ix90/mDxNWNj9lnBpM/skVnuW5zN2ImaEBzJV
TOa5MxHf0+e2FCbP7a/jyS5hypJ4eUKn5aNPz3fpXZa2xZDvFMc0me4DWBuxDKDJ
7SMLiPCoxWKYcOTTo0FGdX7DOZZ4c+Zmbs7K22AwSJSEbuZchhK4nNHztla626sv
sLqWKp9224dpbX1pTN5vDKxecsX+ZhRkoxtDPqilwESteWyGz5yBmaB3/8qGsviT
b9WwaIr2Uso9SGiXXwZrfkCqWlcusofsAGdnAN4yyhgbVRwGNqMc/YBb3F3Kpiyx
vLmthm4f+VJtj/jxLtny+bT4SVGPLh+OxNIVg+IG//vX7cEnL4NGUaY5MaNp7T2a
rFleiMffjORNrkOotClrdysdwkB3g7PteKoAnU90VzFaqK6SfkA76K+CKFgiYREw
PRlm1YKirHEJl7H3HZHHKXjhP4WEbQ85l2tm96BayfAAjDQg5iNasL/37RWoL+RR
pAj/eVqE88SmCLNCWeQowlRB54Am7rK9LM7fRJyXowm1gsLzW3YUf/8tXN3MK0Ev
AmzTEZk27wC/aUZHzwfSdg7iV2z/C6LsigICqli4jf2Na7slg3g7fI4yaCs=
-----END CERTIFICATE-----
